; Function Attrs: null_pointer_is_valid sspstrong uwtable
define internal fastcc void @decode_lcd_cursor(ptr noundef %0, ptr noundef %1, ptr noundef readonly captures(none) %2) unnamed_addr #0 {
  %4 = tail call zeroext i8 @tvb_get_uint8(ptr noundef %1, i32 noundef 4)
  %5 = and i8 %4, 2
  %.not = icmp eq i8 %5, 0
  %6 = select i1 %.not, ptr @.str.992, ptr @.str.1169
  %7 = getelementptr inbounds nuw i8, ptr %2, i64 8
  %8 = load ptr, ptr %7, align 8
  tail call void (ptr, i32, ptr, ...) @col_append_fstr(ptr noundef %8, i32 noundef 25, ptr noundef nonnull @.str.1223, ptr noundef nonnull %6)
  %9 = load i32, ptr @hf_ua3g_lcd_cursor_line_number, align 4
  %10 = tail call ptr @proto_tree_add_item(ptr noundef %0, i32 noundef %9, ptr noundef %1, i32 noundef 3, i32 noundef 1, i32 noundef 0)
  %11 = load i32, ptr @hf_ua3g_lcd_cursor, align 4
  %12 = tail call ptr @proto_tree_add_item(ptr noundef %0, i32 noundef %11, ptr noundef %1, i32 noundef 4, i32 noundef 1, i32 noundef 0)
  ret void
}